target datalayout = "e-m:e-p270:32:32-p271:32:32-p272:64:64-i64:64-i128:128-f80:128-n8:16:32:64-S128"
target triple = "x86_64-pc-linux-gnu"

%struct.CVodeMemRec = type { double, ptr, ptr, i32, i32, i32, double, double, ptr, i32, ptr, ptr, i32, ptr, i32, i32, double, double, ptr, i32, i32, i32, ptr, ptr, ptr, i32, i32, ptr, ptr, ptr, i32, double, i32, i32, double, ptr, ptr, i32, ptr, ptr, i32, i32, i32, double, ptr, ptr, [13 x ptr], ptr, ptr, ptr, ptr, ptr, [13 x ptr], ptr, ptr, ptr, ptr, [13 x ptr], ptr, ptr, ptr, ptr, ptr, i32, [13 x ptr], ptr, ptr, ptr, ptr, ptr, i32, double, i32, i32, i32, i32, i32, double, double, double, double, double, double, double, double, [14 x double], [6 x double], [13 x double], double, double, double, double, double, double, double, double, double, double, double, i32, ptr, i32, i64, i32, i32, i32, i32, i32, double, double, double, i64, i64, i64, i64, i64, i64, i64, i64, i64, ptr, i64, i64, ptr, i64, i64, i64, i64, i64, i64, i32, i64, i64, i64, i64, i64, i64, double, double, double, ptr, ptr, ptr, ptr, ptr, i32, i32, i64, double, double, double, i32, double, i32, i32, i32, i32, i32, i32, i32, i32, i32, i32, i32, i32, i32, i32, i32, i32, ptr, ptr, ptr, i32, [6 x [4 x double]], i32, i64, ptr, i32, ptr, ptr, double, double, double, ptr, ptr, ptr, double, double, i32, i32, i64, ptr, i32, i32, ptr, i32 }

@.str = private unnamed_addr constant [7 x i8] c"CVODES\00", align 1
@.str.2 = private unnamed_addr constant [26 x i8] c"cvode_mem = NULL illegal.\00", align 1
@.str.35 = private unnamed_addr constant [19 x i8] c"CVodeSetSensParams\00", align 1
@.str.36 = private unnamed_addr constant [44 x i8] c"Forward sensitivity analysis not activated.\00", align 1
@.str.37 = private unnamed_addr constant [38 x i8] c"pbar has zero component(s) (illegal).\00", align 1
@.str.38 = private unnamed_addr constant [43 x i8] c"plist has negative component(s) (illegal).\00", align 1

; Function Attrs: nounwind uwtable
define i32 @CVodeSetSensParams(ptr noundef %0, ptr noundef %1, ptr noundef %2, ptr noundef %3) #0 {
  %5 = alloca i32, align 4
  %6 = alloca ptr, align 8
  %7 = alloca ptr, align 8
  %8 = alloca ptr, align 8
  %9 = alloca ptr, align 8
  %10 = alloca ptr, align 8
  %11 = alloca i32, align 4
  %12 = alloca i32, align 4
  %13 = alloca i32, align 4
  store ptr %0, ptr %6, align 8, !tbaa !3
  store ptr %1, ptr %7, align 8, !tbaa !60
  store ptr %2, ptr %8, align 8, !tbaa !60
  store ptr %3, ptr %9, align 8, !tbaa !49
  call void @llvm.lifetime.start.p0(i64 8, ptr %10) #5
  call void @llvm.lifetime.start.p0(i64 4, ptr %11) #5
  call void @llvm.lifetime.start.p0(i64 4, ptr %12) #5
  %14 = load ptr, ptr %6, align 8, !tbaa !3
  %15 = icmp eq ptr %14, null
  br i1 %15, label %16, label %17

16:                                               ; preds = %4
  call void (ptr, i32, ptr, ptr, ptr, ...) @cvProcessError(ptr noundef null, i32 noundef -21, ptr noundef @.str, ptr noundef @.str.35, ptr noundef @.str.2)
  store i32 -21, ptr %5, align 4
  store i32 1, ptr %13, align 4
  br label %132

17:                                               ; preds = %4
  %18 = load ptr, ptr %6, align 8, !tbaa !3
  store ptr %18, ptr %10, align 8, !tbaa !7
  %19 = load ptr, ptr %10, align 8, !tbaa !7
  %20 = getelementptr inbounds nuw %struct.CVodeMemRec, ptr %19, i32 0, i32 165
  %21 = load i32, ptr %20, align 8, !tbaa !61
  %22 = icmp eq i32 %21, 0
  br i1 %22, label %23, label %25

23:                                               ; preds = %17
  %24 = load ptr, ptr %10, align 8, !tbaa !7
  call void (ptr, i32, ptr, ptr, ptr, ...) @cvProcessError(ptr noundef %24, i32 noundef -40, ptr noundef @.str, ptr noundef @.str.35, ptr noundef @.str.36)
  store i32 -40, ptr %5, align 4
  store i32 1, ptr %13, align 4
  br label %132

25:                                               ; preds = %17
  %26 = load ptr, ptr %10, align 8, !tbaa !7
  %27 = getelementptr inbounds nuw %struct.CVodeMemRec, ptr %26, i32 0, i32 20
  %28 = load i32, ptr %27, align 4, !tbaa !62
  store i32 %28, ptr %12, align 4, !tbaa !24
  %29 = load ptr, ptr %7, align 8, !tbaa !60
  %30 = load ptr, ptr %10, align 8, !tbaa !7
  %31 = getelementptr inbounds nuw %struct.CVodeMemRec, ptr %30, i32 0, i32 27
  store ptr %29, ptr %31, align 8, !tbaa !63
  %32 = load ptr, ptr %8, align 8, !tbaa !60
  %33 = icmp ne ptr %32, null
  br i1 %33, label %34, label %65

34:                                               ; preds = %25
  store i32 0, ptr %11, align 4, !tbaa !24
  br label %35

35:                                               ; preds = %61, %34
  %36 = load i32, ptr %11, align 4, !tbaa !24
  %37 = load i32, ptr %12, align 4, !tbaa !24
  %38 = icmp slt i32 %36, %37
  br i1 %38, label %39, label %64

39:                                               ; preds = %35
  %40 = load ptr, ptr %8, align 8, !tbaa !60
  %41 = load i32, ptr %11, align 4, !tbaa !24
  %42 = sext i32 %41 to i64
  %43 = getelementptr inbounds double, ptr %40, i64 %42
  %44 = load double, ptr %43, align 8, !tbaa !36
  %45 = fcmp oeq double %44, 0.000000e+00
  br i1 %45, label %46, label %48

46:                                               ; preds = %39
  %47 = load ptr, ptr %10, align 8, !tbaa !7
  call void (ptr, i32, ptr, ptr, ptr, ...) @cvProcessError(ptr noundef %47, i32 noundef -22, ptr noundef @.str, ptr noundef @.str.35, ptr noundef @.str.37)
  store i32 -22, ptr %5, align 4
  store i32 1, ptr %13, align 4
  br label %132

48:                                               ; preds = %39
  %49 = load ptr, ptr %8, align 8, !tbaa !60
  %50 = load i32, ptr %11, align 4, !tbaa !24
  %51 = sext i32 %50 to i64
  %52 = getelementptr inbounds double, ptr %49, i64 %51
  %53 = load double, ptr %52, align 8, !tbaa !36
  %54 = call double @SUNRabs(double noundef %53)
  %55 = load ptr, ptr %10, align 8, !tbaa !7
  %56 = getelementptr inbounds nuw %struct.CVodeMemRec, ptr %55, i32 0, i32 28
  %57 = load ptr, ptr %56, align 8, !tbaa !64
  %58 = load i32, ptr %11, align 4, !tbaa !24
  %59 = sext i32 %58 to i64
  %60 = getelementptr inbounds double, ptr %57, i64 %59
  store double %54, ptr %60, align 8, !tbaa !36
  br label %61

61:                                               ; preds = %48
  %62 = load i32, ptr %11, align 4, !tbaa !24
  %63 = add nsw i32 %62, 1
  store i32 %63, ptr %11, align 4, !tbaa !24
  br label %35, !llvm.loop !65

64:                                               ; preds = %35
  br label %81

65:                                               ; preds = %25
  store i32 0, ptr %11, align 4, !tbaa !24
  br label %66

66:                                               ; preds = %77, %65
  %67 = load i32, ptr %11, align 4, !tbaa !24
  %68 = load i32, ptr %12, align 4, !tbaa !24
  %69 = icmp slt i32 %67, %68
  br i1 %69, label %70, label %80

70:                                               ; preds = %66
  %71 = load ptr, ptr %10, align 8, !tbaa !7
  %72 = getelementptr inbounds nuw %struct.CVodeMemRec, ptr %71, i32 0, i32 28
  %73 = load ptr, ptr %72, align 8, !tbaa !64
  %74 = load i32, ptr %11, align 4, !tbaa !24
  %75 = sext i32 %74 to i64
  %76 = getelementptr inbounds double, ptr %73, i64 %75
  store double 1.000000e+00, ptr %76, align 8, !tbaa !36
  br label %77

77:                                               ; preds = %70
  %78 = load i32, ptr %11, align 4, !tbaa !24
  %79 = add nsw i32 %78, 1
  store i32 %79, ptr %11, align 4, !tbaa !24
  br label %66, !llvm.loop !66

80:                                               ; preds = %66
  br label %81

81:                                               ; preds = %80, %64
  %82 = load ptr, ptr %9, align 8, !tbaa !49
  %83 = icmp ne ptr %82, null
  br i1 %83, label %84, label %114

84:                                               ; preds = %81
  store i32 0, ptr %11, align 4, !tbaa !24
  br label %85

85:                                               ; preds = %110, %84
  %86 = load i32, ptr %11, align 4, !tbaa !24
  %87 = load i32, ptr %12, align 4, !tbaa !24
  %88 = icmp slt i32 %86, %87
  br i1 %88, label %89, label %113

89:                                               ; preds = %85
  %90 = load ptr, ptr %9, align 8, !tbaa !49
  %91 = load i32, ptr %11, align 4, !tbaa !24
  %92 = sext i32 %91 to i64
  %93 = getelementptr inbounds i32, ptr %90, i64 %92
  %94 = load i32, ptr %93, align 4, !tbaa !24
  %95 = icmp slt i32 %94, 0
  br i1 %95, label %96, label %98

96:                                               ; preds = %89
  %97 = load ptr, ptr %10, align 8, !tbaa !7
  call void (ptr, i32, ptr, ptr, ptr, ...) @cvProcessError(ptr noundef %97, i32 noundef -22, ptr noundef @.str, ptr noundef @.str.35, ptr noundef @.str.38)
  store i32 -22, ptr %5, align 4
  store i32 1, ptr %13, align 4
  br label %132

98:                                               ; preds = %89
  %99 = load ptr, ptr %9, align 8, !tbaa !49
  %100 = load i32, ptr %11, align 4, !tbaa !24
  %101 = sext i32 %100 to i64
  %102 = getelementptr inbounds i32, ptr %99, i64 %101
  %103 = load i32, ptr %102, align 4, !tbaa !24
  %104 = load ptr, ptr %10, align 8, !tbaa !7
  %105 = getelementptr inbounds nuw %struct.CVodeMemRec, ptr %104, i32 0, i32 29
  %106 = load ptr, ptr %105, align 8, !tbaa !67
  %107 = load i32, ptr %11, align 4, !tbaa !24
  %108 = sext i32 %107 to i64
  %109 = getelementptr inbounds i32, ptr %106, i64 %108
  store i32 %103, ptr %109, align 4, !tbaa !24
  br label %110

110:                                              ; preds = %98
  %111 = load i32, ptr %11, align 4, !tbaa !24
  %112 = add nsw i32 %111, 1
  store i32 %112, ptr %11, align 4, !tbaa !24
  br label %85, !llvm.loop !68

113:                                              ; preds = %85
  br label %131

114:                                              ; preds = %81
  store i32 0, ptr %11, align 4, !tbaa !24
  br label %115

115:                                              ; preds = %127, %114
  %116 = load i32, ptr %11, align 4, !tbaa !24
  %117 = load i32, ptr %12, align 4, !tbaa !24
  %118 = icmp slt i32 %116, %117
  br i1 %118, label %119, label %130

119:                                              ; preds = %115
  %120 = load i32, ptr %11, align 4, !tbaa !24
  %121 = load ptr, ptr %10, align 8, !tbaa !7
  %122 = getelementptr inbounds nuw %struct.CVodeMemRec, ptr %121, i32 0, i32 29
  %123 = load ptr, ptr %122, align 8, !tbaa !67
  %124 = load i32, ptr %11, align 4, !tbaa !24
  %125 = sext i32 %124 to i64
  %126 = getelementptr inbounds i32, ptr %123, i64 %125
  store i32 %120, ptr %126, align 4, !tbaa !24
  br label %127

127:                                              ; preds = %119
  %128 = load i32, ptr %11, align 4, !tbaa !24
  %129 = add nsw i32 %128, 1
  store i32 %129, ptr %11, align 4, !tbaa !24
  br label %115, !llvm.loop !69

130:                                              ; preds = %115
  br label %131

131:                                              ; preds = %130, %113
  store i32 0, ptr %5, align 4
  store i32 1, ptr %13, align 4
  br label %132

132:                                              ; preds = %131, %96, %46, %23, %16
  call void @llvm.lifetime.end.p0(i64 4, ptr %12) #5
  call void @llvm.lifetime.end.p0(i64 4, ptr %11) #5
  call void @llvm.lifetime.end.p0(i64 8, ptr %10) #5
  %133 = load i32, ptr %5, align 4
  ret i32 %133
}