; Function Attrs: nounwind uwtable
define range(i32 -40, 1) i32 @CVodeSetSensParams(ptr noundef %0, ptr noundef %1, ptr noundef readonly captures(address_is_null) %2, ptr noundef readonly captures(address_is_null) %3) local_unnamed_addr #0 {
  %5 = icmp eq ptr %0, null
  br i1 %5, label %6, label %7

6:                                                ; preds = %4
  tail call void (ptr, i32, ptr, ptr, ptr, ...) @cvProcessError(ptr noundef null, i32 noundef -21, ptr noundef nonnull @.str, ptr noundef nonnull @.str.35, ptr noundef nonnull @.str.2) #6
  br label %.loopexit

7:                                                ; preds = %4
  %8 = getelementptr inbounds nuw i8, ptr %0, i64 1808
  %9 = load i32, ptr %8, align 8, !tbaa !53
  %10 = icmp eq i32 %9, 0
  br i1 %10, label %11, label %12

11:                                               ; preds = %7
  tail call void (ptr, i32, ptr, ptr, ptr, ...) @cvProcessError(ptr noundef nonnull %0, i32 noundef -40, ptr noundef nonnull @.str, ptr noundef nonnull @.str.35, ptr noundef nonnull @.str.36) #6
  br label %.loopexit

12:                                               ; preds = %7
  %13 = getelementptr inbounds nuw i8, ptr %0, i64 140
  %14 = load i32, ptr %13, align 4, !tbaa !54
  %15 = getelementptr inbounds nuw i8, ptr %0, i64 184
  store ptr %1, ptr %15, align 8, !tbaa !55
  %.not = icmp eq ptr %2, null
  %16 = icmp sgt i32 %14, 0
  br i1 %.not, label %.preheader49, label %.preheader51

.preheader51:                                     ; preds = %12
  br i1 %16, label %.lr.ph, label %.loopexit50

.lr.ph:                                           ; preds = %.preheader51
  %17 = getelementptr inbounds nuw i8, ptr %0, i64 192
  %wide.trip.count = zext nneg i32 %14 to i64
  br label %20

.preheader49:                                     ; preds = %12
  br i1 %16, label %.lr.ph55, label %.loopexit50

.lr.ph55:                                         ; preds = %.preheader49
  %18 = getelementptr inbounds nuw i8, ptr %0, i64 192
  %19 = load ptr, ptr %18, align 8, !tbaa !56
  %wide.trip.count66 = zext nneg i32 %14 to i64
  br label %29

20:                                               ; preds = %.lr.ph, %25
  %indvars.iv = phi i64 [ 0, %.lr.ph ], [ %indvars.iv.next, %25 ]
  %21 = getelementptr inbounds nuw double, ptr %2, i64 %indvars.iv
  %22 = load double, ptr %21, align 8, !tbaa !57
  %23 = fcmp oeq double %22, 0.000000e+00
  br i1 %23, label %24, label %25

24:                                               ; preds = %20
  tail call void (ptr, i32, ptr, ptr, ptr, ...) @cvProcessError(ptr noundef nonnull %0, i32 noundef -22, ptr noundef nonnull @.str, ptr noundef nonnull @.str.35, ptr noundef nonnull @.str.37) #6
  br label %.loopexit

25:                                               ; preds = %20
  %26 = tail call double @SUNRabs(double noundef %22) #6
  %27 = load ptr, ptr %17, align 8, !tbaa !56
  %28 = getelementptr inbounds nuw double, ptr %27, i64 %indvars.iv
  store double %26, ptr %28, align 8, !tbaa !57
  %indvars.iv.next = add nuw nsw i64 %indvars.iv, 1
  %exitcond.not = icmp eq i64 %indvars.iv.next, %wide.trip.count
  br i1 %exitcond.not, label %.loopexit50, label %20, !llvm.loop !58

29:                                               ; preds = %.lr.ph55, %29
  %indvars.iv63 = phi i64 [ 0, %.lr.ph55 ], [ %indvars.iv.next64, %29 ]
  %30 = getelementptr inbounds nuw double, ptr %19, i64 %indvars.iv63
  store double 1.000000e+00, ptr %30, align 8, !tbaa !57
  %indvars.iv.next64 = add nuw nsw i64 %indvars.iv63, 1
  %exitcond67.not = icmp eq i64 %indvars.iv.next64, %wide.trip.count66
  br i1 %exitcond67.not, label %.loopexit50, label %29, !llvm.loop !59

.loopexit50:                                      ; preds = %25, %29, %.preheader51, %.preheader49
  %.not46 = icmp eq ptr %3, null
  %31 = icmp sgt i32 %14, 0
  br i1 %.not46, label %.preheader, label %.preheader47

.preheader47:                                     ; preds = %.loopexit50
  br i1 %31, label %.lr.ph57, label %.loopexit

.lr.ph57:                                         ; preds = %.preheader47
  %32 = getelementptr inbounds nuw i8, ptr %0, i64 200
  %wide.trip.count71 = zext nneg i32 %14 to i64
  br label %35

.preheader:                                       ; preds = %.loopexit50
  br i1 %31, label %.lr.ph59, label %.loopexit

.lr.ph59:                                         ; preds = %.preheader
  %33 = getelementptr inbounds nuw i8, ptr %0, i64 200
  %34 = load ptr, ptr %33, align 8, !tbaa !60
  %wide.trip.count76 = zext nneg i32 %14 to i64
  br label %43

35:                                               ; preds = %.lr.ph57, %40
  %indvars.iv68 = phi i64 [ 0, %.lr.ph57 ], [ %indvars.iv.next69, %40 ]
  %36 = getelementptr inbounds nuw i32, ptr %3, i64 %indvars.iv68
  %37 = load i32, ptr %36, align 4, !tbaa !44
  %38 = icmp slt i32 %37, 0
  br i1 %38, label %39, label %40

39:                                               ; preds = %35
  tail call void (ptr, i32, ptr, ptr, ptr, ...) @cvProcessError(ptr noundef nonnull %0, i32 noundef -22, ptr noundef nonnull @.str, ptr noundef nonnull @.str.35, ptr noundef nonnull @.str.38) #6
  br label %.loopexit

40:                                               ; preds = %35
  %41 = load ptr, ptr %32, align 8, !tbaa !60
  %42 = getelementptr inbounds nuw i32, ptr %41, i64 %indvars.iv68
  store i32 %37, ptr %42, align 4, !tbaa !44
  %indvars.iv.next69 = add nuw nsw i64 %indvars.iv68, 1
  %exitcond72.not = icmp eq i64 %indvars.iv.next69, %wide.trip.count71
  br i1 %exitcond72.not, label %.loopexit, label %35, !llvm.loop !61

43:                                               ; preds = %.lr.ph59, %43
  %indvars.iv73 = phi i64 [ 0, %.lr.ph59 ], [ %indvars.iv.next74, %43 ]
  %44 = getelementptr inbounds nuw i32, ptr %34, i64 %indvars.iv73
  %45 = trunc nuw nsw i64 %indvars.iv73 to i32
  store i32 %45, ptr %44, align 4, !tbaa !44
  %indvars.iv.next74 = add nuw nsw i64 %indvars.iv73, 1
  %exitcond77.not = icmp eq i64 %indvars.iv.next74, %wide.trip.count76
  br i1 %exitcond77.not, label %.loopexit, label %43, !llvm.loop !62

.loopexit:                                        ; preds = %40, %43, %.preheader47, %.preheader, %39, %24, %11, %6
  %.0 = phi i32 [ -21, %6 ], [ -40, %11 ], [ -22, %24 ], [ -22, %39 ], [ 0, %.preheader ], [ 0, %.preheader47 ], [ 0, %43 ], [ 0, %40 ]
  ret i32 %.0
}